target datalayout = "e-m:e-p270:32:32-p271:32:32-p272:64:64-i64:64-i128:128-f80:128-n8:16:32:64-S128"
target triple = "x86_64-pc-linux-gnu"

%"class.std::__cxx11::basic_string" = type { %"struct.std::__cxx11::basic_string<char>::_Alloc_hider", i64, %union.anon }
%"struct.std::__cxx11::basic_string<char>::_Alloc_hider" = type { ptr }
%union.anon = type { i64, [8 x i8] }
%"class.pbrt::ParameterDictionary" = type <{ %"class.pbrt::InlinedVector", ptr, i32, [4 x i8] }>
%"struct.pbrt::FileLoc" = type { %"class.std::basic_string_view", i32, i32 }
%"class.std::basic_string_view" = type { i64, ptr }
%"class.pbrt::InlinedVector" = type { %"class.pstd::pmr::polymorphic_allocator.5", ptr, %union.anon.6, i64, i64 }
%"class.pstd::pmr::polymorphic_allocator.5" = type { ptr }
%union.anon.6 = type { [8 x ptr] }
%"class.pbrt::Transform" = type { %"class.pbrt::SquareMatrix.7", %"class.pbrt::SquareMatrix.7" }
%"class.pbrt::SquareMatrix.7" = type { [4 x [4 x float]] }
%"struct.pbrt::SceneEntity" = type { %"class.pbrt::InternedString", %"struct.pbrt::FileLoc", %"class.pbrt::ParameterDictionary" }
%"class.pbrt::InternedString" = type { ptr }
%"struct.pbrt::CameraSceneEntity" = type { %"struct.pbrt::SceneEntity", %"class.pbrt::CameraTransform", %"class.std::__cxx11::basic_string" }
%"class.pbrt::CameraTransform" = type { %"class.pbrt::AnimatedTransform", %"class.pbrt::Transform" }
%"class.pbrt::AnimatedTransform" = type { %"class.pbrt::Transform", %"class.pbrt::Transform", float, float, i8, [2 x %"class.pbrt::Vector3"], [2 x %"class.pbrt::Quaternion"], [2 x %"class.pbrt::SquareMatrix.7"], i8, [3 x %"struct.pbrt::AnimatedTransform::DerivativeTerm"], [3 x %"struct.pbrt::AnimatedTransform::DerivativeTerm"], [3 x %"struct.pbrt::AnimatedTransform::DerivativeTerm"], [3 x %"struct.pbrt::AnimatedTransform::DerivativeTerm"], [3 x %"struct.pbrt::AnimatedTransform::DerivativeTerm"] }
%"class.pbrt::Vector3" = type { %"class.pbrt::Tuple3" }
%"class.pbrt::Tuple3" = type { float, float, float }
%"class.pbrt::Quaternion" = type { %"class.pbrt::Vector3", float }
%"struct.pbrt::AnimatedTransform::DerivativeTerm" = type { float, float, float, float }
%class.anon.142 = type { %"struct.pbrt::CameraSceneEntity", ptr }

; Function Attrs: mustprogress uwtable
define linkonce_odr dso_local void @_ZN4pstd3pmr15memory_resource10deallocateEPvmm(ptr noundef nonnull align 8 dereferenceable(8) %0, ptr noundef %1, i64 noundef %2, i64 noundef %3) #1 comdat align 2 {
  %5 = alloca ptr, align 8
  %6 = alloca ptr, align 8
  %7 = alloca i64, align 8
  %8 = alloca i64, align 8
  store ptr %0, ptr %5, align 8, !tbaa !78
  store ptr %1, ptr %6, align 8, !tbaa !13
  store i64 %2, ptr %7, align 8, !tbaa !166
  store i64 %3, ptr %8, align 8, !tbaa !166
  %9 = load ptr, ptr %5, align 8
  %10 = load ptr, ptr %6, align 8, !tbaa !13
  %11 = icmp ne ptr %10, null
  br i1 %11, label %13, label %12

12:                                               ; preds = %4
  br label %20

13:                                               ; preds = %4
  %14 = load ptr, ptr %6, align 8, !tbaa !13
  %15 = load i64, ptr %7, align 8, !tbaa !166
  %16 = load i64, ptr %8, align 8, !tbaa !166
  %17 = load ptr, ptr %9, align 8, !tbaa !86
  %18 = getelementptr inbounds ptr, ptr %17, i64 3
  %19 = load ptr, ptr %18, align 8
  call void %19(ptr noundef nonnull align 8 dereferenceable(8) %9, ptr noundef %14, i64 noundef %15, i64 noundef %16)
  br label %20

20:                                               ; preds = %13, %12
  ret void
}

; Function Attrs: mustprogress nounwind uwtable
define linkonce_odr dso_local noundef ptr @_ZNK4pstd3pmr21polymorphic_allocatorIPN4pbrt15ParsedParameterEE8resourceEv(ptr noundef nonnull align 8 dereferenceable(8) %0) #7 comdat align 2 {
  %2 = alloca ptr, align 8
  store ptr %0, ptr %2, align 8, !tbaa !72
  %3 = load ptr, ptr %2, align 8
  %4 = getelementptr inbounds nuw %"class.pstd::pmr::polymorphic_allocator.5", ptr %3, i32 0, i32 0
  %5 = load ptr, ptr %4, align 8, !tbaa !74
  ret ptr %5
}

; Function Attrs: mustprogress uwtable
define linkonce_odr dso_local void @_ZN4pstd3pmr21polymorphic_allocatorIPN4pbrt15ParsedParameterEE16deallocate_bytesEPvmm(ptr noundef nonnull align 8 dereferenceable(8) %0, ptr noundef %1, i64 noundef %2, i64 noundef %3) #1 comdat align 2 {
  %5 = alloca ptr, align 8
  %6 = alloca ptr, align 8
  %7 = alloca i64, align 8
  %8 = alloca i64, align 8
  store ptr %0, ptr %5, align 8, !tbaa !72
  store ptr %1, ptr %6, align 8, !tbaa !13
  store i64 %2, ptr %7, align 8, !tbaa !166
  store i64 %3, ptr %8, align 8, !tbaa !166
  %9 = load ptr, ptr %5, align 8
  %10 = call noundef ptr @_ZNK4pstd3pmr21polymorphic_allocatorIPN4pbrt15ParsedParameterEE8resourceEv(ptr noundef nonnull align 8 dereferenceable(8) %9)
  %11 = load ptr, ptr %6, align 8, !tbaa !13
  %12 = load i64, ptr %7, align 8, !tbaa !166
  %13 = load i64, ptr %8, align 8, !tbaa !166
  call void @_ZN4pstd3pmr15memory_resource10deallocateEPvmm(ptr noundef nonnull align 8 dereferenceable(8) %10, ptr noundef %11, i64 noundef %12, i64 noundef %13)
  ret void
}

; Function Attrs: mustprogress nounwind uwtable
define linkonce_odr dso_local void @_ZN4pstd3pmr21polymorphic_allocatorIPN4pbrt15ParsedParameterEE7destroyIS4_EEvPT_(ptr noundef nonnull align 8 dereferenceable(8) %0, ptr noundef %1) #7 comdat align 2 {
  %3 = alloca ptr, align 8
  %4 = alloca ptr, align 8
  store ptr %0, ptr %3, align 8, !tbaa !72
  store ptr %1, ptr %4, align 8, !tbaa !210
  ret void
}

; Function Attrs: mustprogress nounwind uwtable
define linkonce_odr dso_local noundef ptr @_ZN4pbrt13InlinedVectorIPNS_15ParsedParameterELi8EN4pstd3pmr21polymorphic_allocatorIS2_EEE5beginEv(ptr noundef nonnull align 8 dereferenceable(96) %0) #7 comdat align 2 {
  %2 = alloca ptr, align 8
  store ptr %0, ptr %2, align 8, !tbaa !75
  %3 = load ptr, ptr %2, align 8
  %4 = getelementptr inbounds nuw %"class.pbrt::InlinedVector", ptr %3, i32 0, i32 1
  %5 = load ptr, ptr %4, align 8, !tbaa !79
  %6 = icmp ne ptr %5, null
  br i1 %6, label %7, label %10

7:                                                ; preds = %1
  %8 = getelementptr inbounds nuw %"class.pbrt::InlinedVector", ptr %3, i32 0, i32 1
  %9 = load ptr, ptr %8, align 8, !tbaa !79
  br label %13

10:                                               ; preds = %1
  %11 = getelementptr inbounds nuw %"class.pbrt::InlinedVector", ptr %3, i32 0, i32 2
  %12 = getelementptr inbounds [8 x ptr], ptr %11, i64 0, i64 0
  br label %13

13:                                               ; preds = %10, %7
  %14 = phi ptr [ %9, %7 ], [ %12, %10 ]
  ret ptr %14
}

; Function Attrs: mustprogress nounwind uwtable
define linkonce_odr dso_local void @_ZNSt15__new_allocatorIcE10deallocateEPcm(ptr noundef nonnull align 1 dereferenceable(1) %0, ptr noundef %1, i64 noundef %2) #7 comdat align 2 {
  %4 = alloca ptr, align 8
  %5 = alloca ptr, align 8
  %6 = alloca i64, align 8
  store ptr %0, ptr %4, align 8, !tbaa !886
  store ptr %1, ptr %5, align 8, !tbaa !35
  store i64 %2, ptr %6, align 8, !tbaa !166
  %7 = load ptr, ptr %5, align 8, !tbaa !35
  %8 = load i64, ptr %6, align 8, !tbaa !166
  %9 = mul i64 %8, 1
  call void @_ZdlPvm(ptr noundef %7, i64 noundef %9) #29
  ret void
}

; Function Attrs: mustprogress nounwind uwtable
define linkonce_odr dso_local noundef ptr @_ZNSt19__ptr_traits_ptr_toIPKcS0_Lb0EE10pointer_toERS0_(ptr noundef nonnull align 1 dereferenceable(1) %0) #7 comdat align 2 {
  %2 = alloca ptr, align 8
  store ptr %0, ptr %2, align 8, !tbaa !35
  %3 = load ptr, ptr %2, align 8, !tbaa !35
  ret ptr %3
}

; Function Attrs: mustprogress uwtable
define linkonce_odr dso_local void @_ZN4pstd3pmr21polymorphic_allocatorIPN4pbrt15ParsedParameterEE17deallocate_objectIS4_EEvPT_m(ptr noundef nonnull align 8 dereferenceable(8) %0, ptr noundef %1, i64 noundef %2) #1 comdat align 2 {
  %4 = alloca ptr, align 8
  %5 = alloca ptr, align 8
  %6 = alloca i64, align 8
  store ptr %0, ptr %4, align 8, !tbaa !72
  store ptr %1, ptr %5, align 8, !tbaa !210
  store i64 %2, ptr %6, align 8, !tbaa !166
  %7 = load ptr, ptr %4, align 8
  %8 = load ptr, ptr %5, align 8, !tbaa !210
  %9 = load i64, ptr %6, align 8, !tbaa !166
  %10 = mul i64 %9, 8
  call void @_ZN4pstd3pmr21polymorphic_allocatorIPN4pbrt15ParsedParameterEE16deallocate_bytesEPvmm(ptr noundef nonnull align 8 dereferenceable(8) %7, ptr noundef %8, i64 noundef %10, i64 noundef 8)
  ret void
}

; Function Attrs: mustprogress uwtable
define linkonce_odr dso_local void @_ZN4pbrt13InlinedVectorIPNS_15ParsedParameterELi8EN4pstd3pmr21polymorphic_allocatorIS2_EEE5clearEv(ptr noundef nonnull align 8 dereferenceable(96) %0) #1 comdat align 2 {
  %2 = alloca ptr, align 8
  %3 = alloca i32, align 4
  store ptr %0, ptr %2, align 8, !tbaa !75
  %4 = load ptr, ptr %2, align 8
  call void @llvm.lifetime.start.p0(i64 4, ptr %3) #6
  store i32 0, ptr %3, align 4, !tbaa !167
  br label %5

5:                                                ; preds = %18, %1
  %6 = load i32, ptr %3, align 4, !tbaa !167
  %7 = sext i32 %6 to i64
  %8 = getelementptr inbounds nuw %"class.pbrt::InlinedVector", ptr %4, i32 0, i32 4
  %9 = load i64, ptr %8, align 8, !tbaa !81
  %10 = icmp ult i64 %7, %9
  br i1 %10, label %12, label %11

11:                                               ; preds = %5
  call void @llvm.lifetime.end.p0(i64 4, ptr %3) #6
  br label %21

12:                                               ; preds = %5
  %13 = getelementptr inbounds nuw %"class.pbrt::InlinedVector", ptr %4, i32 0, i32 0
  %14 = call noundef ptr @_ZN4pbrt13InlinedVectorIPNS_15ParsedParameterELi8EN4pstd3pmr21polymorphic_allocatorIS2_EEE5beginEv(ptr noundef nonnull align 8 dereferenceable(96) %4)
  %15 = load i32, ptr %3, align 4, !tbaa !167
  %16 = sext i32 %15 to i64
  %17 = getelementptr inbounds ptr, ptr %14, i64 %16
  call void @_ZN4pstd3pmr21polymorphic_allocatorIPN4pbrt15ParsedParameterEE7destroyIS4_EEvPT_(ptr noundef nonnull align 8 dereferenceable(8) %13, ptr noundef %17)
  br label %18

18:                                               ; preds = %12
  %19 = load i32, ptr %3, align 4, !tbaa !167
  %20 = add nsw i32 %19, 1
  store i32 %20, ptr %3, align 4, !tbaa !167
  br label %5, !llvm.loop !804

21:                                               ; preds = %11
  %22 = getelementptr inbounds nuw %"class.pbrt::InlinedVector", ptr %4, i32 0, i32 4
  store i64 0, ptr %22, align 8, !tbaa !81
  ret void
}

; Function Attrs: mustprogress uwtable
define linkonce_odr dso_local void @_ZNSt16allocator_traitsISaIcEE10deallocateERS0_Pcm(ptr noundef nonnull align 1 dereferenceable(1) %0, ptr noundef %1, i64 noundef %2) #1 comdat align 2 {
  %4 = alloca ptr, align 8
  %5 = alloca ptr, align 8
  %6 = alloca i64, align 8
  store ptr %0, ptr %4, align 8, !tbaa !160
  store ptr %1, ptr %5, align 8, !tbaa !35
  store i64 %2, ptr %6, align 8, !tbaa !166
  %7 = load ptr, ptr %4, align 8, !tbaa !160
  %8 = load ptr, ptr %5, align 8, !tbaa !35
  %9 = load i64, ptr %6, align 8, !tbaa !166
  call void @_ZNSt15__new_allocatorIcE10deallocateEPcm(ptr noundef nonnull align 1 dereferenceable(1) %7, ptr noundef %8, i64 noundef %9)
  ret void
}

; Function Attrs: mustprogress nounwind uwtable
define available_externally noundef nonnull align 1 dereferenceable(1) ptr @_ZNSt7__cxx1112basic_stringIcSt11char_traitsIcESaIcEE16_M_get_allocatorEv(ptr noundef nonnull align 8 dereferenceable(32) %0) #7 align 2 {
  %2 = alloca ptr, align 8
  store ptr %0, ptr %2, align 8, !tbaa !63
  %3 = load ptr, ptr %2, align 8
  %4 = getelementptr inbounds nuw %"class.std::__cxx11::basic_string", ptr %3, i32 0, i32 0
  ret ptr %4
}

; Function Attrs: mustprogress nounwind uwtable
define available_externally noundef ptr @_ZNKSt7__cxx1112basic_stringIcSt11char_traitsIcESaIcEE13_M_local_dataEv(ptr noundef nonnull align 8 dereferenceable(32) %0) #7 align 2 {
  %2 = alloca ptr, align 8
  store ptr %0, ptr %2, align 8, !tbaa !63
  %3 = load ptr, ptr %2, align 8
  %4 = getelementptr inbounds nuw %"class.std::__cxx11::basic_string", ptr %3, i32 0, i32 2
  %5 = getelementptr inbounds [16 x i8], ptr %4, i64 0, i64 0
  %6 = call noundef ptr @_ZNSt19__ptr_traits_ptr_toIPKcS0_Lb0EE10pointer_toERS0_(ptr noundef nonnull align 1 dereferenceable(1) %5) #6
  ret ptr %6
}

; Function Attrs: mustprogress nounwind uwtable
define available_externally noundef ptr @_ZNKSt7__cxx1112basic_stringIcSt11char_traitsIcESaIcEE7_M_dataEv(ptr noundef nonnull align 8 dereferenceable(32) %0) #7 align 2 {
  %2 = alloca ptr, align 8
  store ptr %0, ptr %2, align 8, !tbaa !63
  %3 = load ptr, ptr %2, align 8
  %4 = getelementptr inbounds nuw %"class.std::__cxx11::basic_string", ptr %3, i32 0, i32 0
  %5 = getelementptr inbounds nuw %"struct.std::__cxx11::basic_string<char>::_Alloc_hider", ptr %4, i32 0, i32 0
  %6 = load ptr, ptr %5, align 8, !tbaa !885
  ret ptr %6
}

; Function Attrs: mustprogress nounwind uwtable
define linkonce_odr dso_local void @_ZN4pbrt13InlinedVectorIPNS_15ParsedParameterELi8EN4pstd3pmr21polymorphic_allocatorIS2_EEED2Ev(ptr noundef nonnull align 8 dereferenceable(96) %0) unnamed_addr #7 comdat align 2 personality ptr @__gxx_personality_v0 {
  %2 = alloca ptr, align 8
  store ptr %0, ptr %2, align 8, !tbaa !75
  %3 = load ptr, ptr %2, align 8
  invoke void @_ZN4pbrt13InlinedVectorIPNS_15ParsedParameterELi8EN4pstd3pmr21polymorphic_allocatorIS2_EEE5clearEv(ptr noundef nonnull align 8 dereferenceable(96) %3)
          to label %4 unwind label %11

4:                                                ; preds = %1
  %5 = getelementptr inbounds nuw %"class.pbrt::InlinedVector", ptr %3, i32 0, i32 0
  %6 = getelementptr inbounds nuw %"class.pbrt::InlinedVector", ptr %3, i32 0, i32 1
  %7 = load ptr, ptr %6, align 8, !tbaa !79
  %8 = getelementptr inbounds nuw %"class.pbrt::InlinedVector", ptr %3, i32 0, i32 3
  %9 = load i64, ptr %8, align 8, !tbaa !80
  invoke void @_ZN4pstd3pmr21polymorphic_allocatorIPN4pbrt15ParsedParameterEE17deallocate_objectIS4_EEvPT_m(ptr noundef nonnull align 8 dereferenceable(8) %5, ptr noundef %7, i64 noundef %9)
          to label %10 unwind label %11

10:                                               ; preds = %4
  ret void

11:                                               ; preds = %4, %1
  %12 = landingpad { ptr, i32 }
          catch ptr null
  %13 = extractvalue { ptr, i32 } %12, 0
  call void @__clang_call_terminate(ptr %13) #26
  unreachable
}

; Function Attrs: mustprogress nounwind uwtable
define available_externally void @_ZNSt7__cxx1112basic_stringIcSt11char_traitsIcESaIcEE10_M_destroyEm(ptr noundef nonnull align 8 dereferenceable(32) %0, i64 noundef %1) #7 align 2 personality ptr @__gxx_personality_v0 {
  %3 = alloca ptr, align 8
  %4 = alloca i64, align 8
  store ptr %0, ptr %3, align 8, !tbaa !63
  store i64 %1, ptr %4, align 8, !tbaa !166
  %5 = load ptr, ptr %3, align 8
  %6 = call noundef nonnull align 1 dereferenceable(1) ptr @_ZNSt7__cxx1112basic_stringIcSt11char_traitsIcESaIcEE16_M_get_allocatorEv(ptr noundef nonnull align 8 dereferenceable(32) %5)
  %7 = call noundef ptr @_ZNKSt7__cxx1112basic_stringIcSt11char_traitsIcESaIcEE7_M_dataEv(ptr noundef nonnull align 8 dereferenceable(32) %5)
  %8 = load i64, ptr %4, align 8, !tbaa !166
  %9 = add i64 %8, 1
  invoke void @_ZNSt16allocator_traitsISaIcEE10deallocateERS0_Pcm(ptr noundef nonnull align 1 dereferenceable(1) %6, ptr noundef %7, i64 noundef %9)
          to label %10 unwind label %11

10:                                               ; preds = %2
  ret void

11:                                               ; preds = %2
  %12 = landingpad { ptr, i32 }
          catch ptr null
  %13 = extractvalue { ptr, i32 } %12, 0
  call void @__clang_call_terminate(ptr %13) #26
  unreachable
}

; Function Attrs: mustprogress uwtable
define available_externally noundef zeroext i1 @_ZNKSt7__cxx1112basic_stringIcSt11char_traitsIcESaIcEE11_M_is_localEv(ptr noundef nonnull align 8 dereferenceable(32) %0) #1 align 2 {
  %2 = alloca i1, align 1
  %3 = alloca ptr, align 8
  store ptr %0, ptr %3, align 8, !tbaa !63
  %4 = load ptr, ptr %3, align 8
  %5 = call noundef ptr @_ZNKSt7__cxx1112basic_stringIcSt11char_traitsIcESaIcEE7_M_dataEv(ptr noundef nonnull align 8 dereferenceable(32) %4)
  %6 = call noundef ptr @_ZNKSt7__cxx1112basic_stringIcSt11char_traitsIcESaIcEE13_M_local_dataEv(ptr noundef nonnull align 8 dereferenceable(32) %4)
  %7 = icmp eq ptr %5, %6
  br i1 %7, label %8, label %14

8:                                                ; preds = %1
  %9 = getelementptr inbounds nuw %"class.std::__cxx11::basic_string", ptr %4, i32 0, i32 1
  %10 = load i64, ptr %9, align 8, !tbaa !387
  %11 = icmp ugt i64 %10, 15
  br i1 %11, label %12, label %13

12:                                               ; preds = %8
  unreachable

13:                                               ; preds = %8
  store i1 true, ptr %2, align 1
  br label %15

14:                                               ; preds = %1
  store i1 false, ptr %2, align 1
  br label %15

15:                                               ; preds = %14, %13
  %16 = load i1, ptr %2, align 1
  ret i1 %16
}

; Function Attrs: inlinehint mustprogress nounwind uwtable
define linkonce_odr dso_local void @_ZN4pbrt19ParameterDictionaryD2Ev(ptr noundef nonnull align 8 dereferenceable(108) %0) unnamed_addr #3 comdat align 2 {
  %2 = alloca ptr, align 8
  store ptr %0, ptr %2, align 8, !tbaa !65
  %3 = load ptr, ptr %2, align 8
  %4 = getelementptr inbounds nuw %"class.pbrt::ParameterDictionary", ptr %3, i32 0, i32 0
  call void @_ZN4pbrt13InlinedVectorIPNS_15ParsedParameterELi8EN4pstd3pmr21polymorphic_allocatorIS2_EEED2Ev(ptr noundef nonnull align 8 dereferenceable(96) %4) #6
  ret void
}

; Function Attrs: mustprogress nounwind uwtable
define linkonce_odr dso_local void @_ZNSt15__new_allocatorIcED2Ev(ptr noundef nonnull align 1 dereferenceable(1) %0) unnamed_addr #7 comdat align 2 {
  %2 = alloca ptr, align 8
  store ptr %0, ptr %2, align 8, !tbaa !886
  ret void
}

; Function Attrs: mustprogress uwtable
define available_externally void @_ZNSt7__cxx1112basic_stringIcSt11char_traitsIcESaIcEE10_M_disposeEv(ptr noundef nonnull align 8 dereferenceable(32) %0) #1 align 2 {
  %2 = alloca ptr, align 8
  store ptr %0, ptr %2, align 8, !tbaa !63
  %3 = load ptr, ptr %2, align 8
  %4 = call noundef zeroext i1 @_ZNKSt7__cxx1112basic_stringIcSt11char_traitsIcESaIcEE11_M_is_localEv(ptr noundef nonnull align 8 dereferenceable(32) %3)
  br i1 %4, label %8, label %5

5:                                                ; preds = %1
  %6 = getelementptr inbounds nuw %"class.std::__cxx11::basic_string", ptr %3, i32 0, i32 2
  %7 = load i64, ptr %6, align 8, !tbaa !181
  call void @_ZNSt7__cxx1112basic_stringIcSt11char_traitsIcESaIcEE10_M_destroyEm(ptr noundef nonnull align 8 dereferenceable(32) %3, i64 noundef %7) #6
  br label %8

8:                                                ; preds = %5, %1
  ret void
}

; Function Attrs: inlinehint mustprogress nounwind uwtable
define linkonce_odr dso_local void @_ZN4pbrt11SceneEntityD2Ev(ptr noundef nonnull align 8 dereferenceable(144) %0) unnamed_addr #3 comdat align 2 {
  %2 = alloca ptr, align 8
  store ptr %0, ptr %2, align 8, !tbaa !39
  %3 = load ptr, ptr %2, align 8
  %4 = getelementptr inbounds nuw %"struct.pbrt::SceneEntity", ptr %3, i32 0, i32 2
  call void @_ZN4pbrt19ParameterDictionaryD2Ev(ptr noundef nonnull align 8 dereferenceable(108) %4) #6
  ret void
}

; Function Attrs: mustprogress nounwind uwtable
define available_externally void @_ZNSt7__cxx1112basic_stringIcSt11char_traitsIcESaIcEED2Ev(ptr noundef nonnull align 8 dereferenceable(32) %0) unnamed_addr #7 align 2 personality ptr @__gxx_personality_v0 {
  %2 = alloca ptr, align 8
  store ptr %0, ptr %2, align 8, !tbaa !63
  %3 = load ptr, ptr %2, align 8
  invoke void @_ZNSt7__cxx1112basic_stringIcSt11char_traitsIcESaIcEE10_M_disposeEv(ptr noundef nonnull align 8 dereferenceable(32) %3)
          to label %4 unwind label %6

4:                                                ; preds = %1
  %5 = getelementptr inbounds nuw %"class.std::__cxx11::basic_string", ptr %3, i32 0, i32 0
  call void @_ZNSt15__new_allocatorIcED2Ev(ptr noundef nonnull align 8 dereferenceable(8) %5) #6
  ret void

6:                                                ; preds = %1
  %7 = landingpad { ptr, i32 }
          catch ptr null
  %8 = extractvalue { ptr, i32 } %7, 0
  call void @__clang_call_terminate(ptr %8) #26
  unreachable
}

; Function Attrs: inlinehint mustprogress nounwind uwtable
define linkonce_odr dso_local void @_ZN4pbrt17CameraSceneEntityD2Ev(ptr noundef nonnull align 8 dereferenceable(1000) %0) unnamed_addr #3 comdat align 2 {
  %2 = alloca ptr, align 8
  store ptr %0, ptr %2, align 8, !tbaa !37
  %3 = load ptr, ptr %2, align 8
  %4 = getelementptr inbounds nuw %"struct.pbrt::CameraSceneEntity", ptr %3, i32 0, i32 2
  call void @_ZNSt7__cxx1112basic_stringIcSt11char_traitsIcESaIcEED2Ev(ptr noundef nonnull align 8 dereferenceable(32) %4) #6
  call void @_ZN4pbrt11SceneEntityD2Ev(ptr noundef nonnull align 8 dereferenceable(144) %3) #6
  ret void
}

; Function Attrs: inlinehint mustprogress nounwind uwtable
define internal void @"_ZZN4pbrt10BasicScene10SetOptionsENS_11SceneEntityES1_NS_17CameraSceneEntityES1_S1_S1_EN3$_1D2Ev"(ptr noundef nonnull align 8 dereferenceable(1008) %0) unnamed_addr #3 align 2 {
  %2 = alloca ptr, align 8
  store ptr %0, ptr %2, align 8, !tbaa !13
  %3 = load ptr, ptr %2, align 8
  %4 = getelementptr inbounds nuw %class.anon.142, ptr %3, i32 0, i32 0
  call void @_ZN4pbrt17CameraSceneEntityD2Ev(ptr noundef nonnull align 8 dereferenceable(1000) %4) #6
  ret void
}